; Function Attrs: mustprogress uwtable
define void @_ZNK6casadi11Collocation22algebraic_state_outputERKNS_2MXE(ptr dead_on_unwind noalias writable sret(%"class.casadi::MX") align 8 %0, ptr nocapture noundef nonnull readonly align 8 dereferenceable(2016) %1, ptr noundef nonnull align 8 dereferenceable(8) %2) unnamed_addr #3 align 2 personality ptr @__gxx_personality_v0 {
  %4 = alloca %"class.casadi::Slice", align 8
  %5 = tail call noundef nonnull align 8 dereferenceable(8) ptr @_ZNK6casadi2MX8sparsityEv(ptr noundef nonnull align 8 dereferenceable(8) %2)
  %6 = tail call noundef i64 @_ZNK6casadi8Sparsity5size1Ev(ptr noundef nonnull align 8 dereferenceable(8) %5)
  %7 = getelementptr inbounds i8, ptr %1, i64 1608
  %8 = load i64, ptr %7, align 8
  %9 = sub nsw i64 %6, %8
  %10 = tail call noundef nonnull align 8 dereferenceable(8) ptr @_ZNK6casadi2MX8sparsityEv(ptr noundef nonnull align 8 dereferenceable(8) %2)
  %11 = tail call noundef i64 @_ZNK6casadi8Sparsity5size1Ev(ptr noundef nonnull align 8 dereferenceable(8) %10)
  call void @_ZN6casadi5SliceC1Exxx(ptr noundef nonnull align 8 dereferenceable(24) %4, i64 noundef %9, i64 noundef %11, i64 noundef 1)
  call void @_ZN6casadi2MXC1Ev(ptr noundef nonnull align 8 dereferenceable(8) %0)
  invoke void @_ZNK6casadi2MX3getERS0_bRKNS_5SliceE(ptr noundef nonnull align 8 dereferenceable(8) %2, ptr noundef nonnull align 8 dereferenceable(8) %0, i1 noundef zeroext false, ptr noundef nonnull align 8 dereferenceable(24) %4)
          to label %_ZNK6casadi13GenericMatrixINS_2MXEEclINS_5SliceEEEKS1_RKT_.exit unwind label %12

12:                                               ; preds = %3
  %13 = landingpad { ptr, i32 }
          cleanup
  call void @_ZN6casadi2MXD1Ev(ptr noundef nonnull align 8 dereferenceable(8) %0) #18
  resume { ptr, i32 } %13

_ZNK6casadi13GenericMatrixINS_2MXEEclINS_5SliceEEEKS1_RKT_.exit: ; preds = %3
  ret void
}